; Function Attrs: mustprogress nounwind uwtable
define internal fastcc void @"_ZN5folly6detail14ScopeGuardImplIZN8proxygen15HTTPTransaction13resumeIngressEvE3$_0Lb1EED2Ev"(i8 %this.0.val, ptr %this.8.val) unnamed_addr #5 align 2 personality ptr @__gxx_personality_v0 {
entry:
  %0 = and i8 %this.0.val, 1
  %tobool.not = icmp eq i8 %0, 0
  br i1 %tobool.not, label %if.then, label %if.end

if.then:                                          ; preds = %entry
  invoke void @_ZN8proxygen15HTTPTransaction17updateReadTimeoutEv(ptr noundef nonnull align 8 dereferenceable(912) %this.8.val)
          to label %"_ZN5folly6detail14ScopeGuardImplIZN8proxygen15HTTPTransaction13resumeIngressEvE3$_0Lb1EE7executeEv.exit" unwind label %terminate.lpad.i.i

terminate.lpad.i.i:                               ; preds = %if.then
  %1 = landingpad { ptr, i32 }
          catch ptr null
  %2 = extractvalue { ptr, i32 } %1, 0
  tail call void @__clang_call_terminate(ptr %2) #29
  unreachable

"_ZN5folly6detail14ScopeGuardImplIZN8proxygen15HTTPTransaction13resumeIngressEvE3$_0Lb1EE7executeEv.exit": ; preds = %if.then
  %inResume_.i.i = getelementptr inbounds i8, ptr %this.8.val, i64 728
  %bf.load.i.i = load i32, ptr %inResume_.i.i, align 8
  %bf.clear.i.i = and i32 %bf.load.i.i, -1025
  store i32 %bf.clear.i.i, ptr %inResume_.i.i, align 8
  br label %if.end

if.end:                                           ; preds = %"_ZN5folly6detail14ScopeGuardImplIZN8proxygen15HTTPTransaction13resumeIngressEvE3$_0Lb1EE7executeEv.exit", %entry
  ret void
}